target datalayout = "e-m:e-p270:32:32-p271:32:32-p272:64:64-i64:64-i128:128-f80:128-n8:16:32:64-S128"
target triple = "x86_64-pc-linux-gnu"

%class.btVector3 = type { [4 x float] }

; Function Attrs: inlinehint mustprogress nounwind uwtable
define linkonce_odr dso_local noundef nonnull align 4 dereferenceable(16) ptr @_ZN9btVector3mLERKf(ptr noundef nonnull align 4 dereferenceable(16) %0, ptr noundef nonnull align 4 dereferenceable(4) %1) #5 comdat align 2 {
  %3 = alloca ptr, align 8
  %4 = alloca ptr, align 8
  store ptr %0, ptr %3, align 8, !tbaa !17
  store ptr %1, ptr %4, align 8, !tbaa !19
  %5 = load ptr, ptr %3, align 8
  %6 = load ptr, ptr %4, align 8, !tbaa !19
  %7 = load float, ptr %6, align 4, !tbaa !15
  %8 = getelementptr inbounds nuw %class.btVector3, ptr %5, i32 0, i32 0
  %9 = getelementptr inbounds [4 x float], ptr %8, i64 0, i64 0
  %10 = load float, ptr %9, align 4, !tbaa !15
  %11 = fmul float %10, %7
  store float %11, ptr %9, align 4, !tbaa !15
  %12 = load ptr, ptr %4, align 8, !tbaa !19
  %13 = load float, ptr %12, align 4, !tbaa !15
  %14 = getelementptr inbounds nuw %class.btVector3, ptr %5, i32 0, i32 0
  %15 = getelementptr inbounds [4 x float], ptr %14, i64 0, i64 1
  %16 = load float, ptr %15, align 4, !tbaa !15
  %17 = fmul float %16, %13
  store float %17, ptr %15, align 4, !tbaa !15
  %18 = load ptr, ptr %4, align 8, !tbaa !19
  %19 = load float, ptr %18, align 4, !tbaa !15
  %20 = getelementptr inbounds nuw %class.btVector3, ptr %5, i32 0, i32 0
  %21 = getelementptr inbounds [4 x float], ptr %20, i64 0, i64 2
  %22 = load float, ptr %21, align 4, !tbaa !15
  %23 = fmul float %22, %19
  store float %23, ptr %21, align 4, !tbaa !15
  ret ptr %5
}

; Function Attrs: inlinehint mustprogress nounwind uwtable
define linkonce_odr dso_local noundef nonnull align 4 dereferenceable(16) ptr @_ZN9btVector3dVERKf(ptr noundef nonnull align 4 dereferenceable(16) %0, ptr noundef nonnull align 4 dereferenceable(4) %1) #5 comdat align 2 {
  %3 = alloca ptr, align 8
  %4 = alloca ptr, align 8
  %5 = alloca float, align 4
  store ptr %0, ptr %3, align 8, !tbaa !17
  store ptr %1, ptr %4, align 8, !tbaa !19
  %6 = load ptr, ptr %3, align 8
  call void @llvm.lifetime.start.p0(i64 4, ptr %5) #14
  %7 = load ptr, ptr %4, align 8, !tbaa !19
  %8 = load float, ptr %7, align 4, !tbaa !15
  %9 = fdiv float 1.000000e+00, %8
  store float %9, ptr %5, align 4, !tbaa !15
  %10 = call noundef nonnull align 4 dereferenceable(16) ptr @_ZN9btVector3mLERKf(ptr noundef nonnull align 4 dereferenceable(16) %6, ptr noundef nonnull align 4 dereferenceable(4) %5)
  call void @llvm.lifetime.end.p0(i64 4, ptr %5) #14
  ret ptr %10
}

; Function Attrs: inlinehint mustprogress nounwind uwtable
define linkonce_odr dso_local noundef float @_ZNK9btVector33dotERKS_(ptr noundef nonnull align 4 dereferenceable(16) %0, ptr noundef nonnull align 4 dereferenceable(16) %1) #5 comdat align 2 {
  %3 = alloca ptr, align 8
  %4 = alloca ptr, align 8
  store ptr %0, ptr %3, align 8, !tbaa !17
  store ptr %1, ptr %4, align 8, !tbaa !17
  %5 = load ptr, ptr %3, align 8
  %6 = getelementptr inbounds nuw %class.btVector3, ptr %5, i32 0, i32 0
  %7 = getelementptr inbounds [4 x float], ptr %6, i64 0, i64 0
  %8 = load float, ptr %7, align 4, !tbaa !15
  %9 = load ptr, ptr %4, align 8, !tbaa !17
  %10 = getelementptr inbounds nuw %class.btVector3, ptr %9, i32 0, i32 0
  %11 = getelementptr inbounds [4 x float], ptr %10, i64 0, i64 0
  %12 = load float, ptr %11, align 4, !tbaa !15
  %13 = getelementptr inbounds nuw %class.btVector3, ptr %5, i32 0, i32 0
  %14 = getelementptr inbounds [4 x float], ptr %13, i64 0, i64 1
  %15 = load float, ptr %14, align 4, !tbaa !15
  %16 = load ptr, ptr %4, align 8, !tbaa !17
  %17 = getelementptr inbounds nuw %class.btVector3, ptr %16, i32 0, i32 0
  %18 = getelementptr inbounds [4 x float], ptr %17, i64 0, i64 1
  %19 = load float, ptr %18, align 4, !tbaa !15
  %20 = fmul float %15, %19
  %21 = call float @llvm.fmuladd.f32(float %8, float %12, float %20)
  %22 = getelementptr inbounds nuw %class.btVector3, ptr %5, i32 0, i32 0
  %23 = getelementptr inbounds [4 x float], ptr %22, i64 0, i64 2
  %24 = load float, ptr %23, align 4, !tbaa !15
  %25 = load ptr, ptr %4, align 8, !tbaa !17
  %26 = getelementptr inbounds nuw %class.btVector3, ptr %25, i32 0, i32 0
  %27 = getelementptr inbounds [4 x float], ptr %26, i64 0, i64 2
  %28 = load float, ptr %27, align 4, !tbaa !15
  %29 = call float @llvm.fmuladd.f32(float %24, float %28, float %21)
  ret float %29
}

; Function Attrs: inlinehint mustprogress uwtable
define linkonce_odr dso_local noundef nonnull align 4 dereferenceable(16) ptr @_ZN9btVector39normalizeEv(ptr noundef nonnull align 4 dereferenceable(16) %0) #6 comdat align 2 {
  %2 = alloca ptr, align 8
  %3 = alloca float, align 4
  store ptr %0, ptr %2, align 8, !tbaa !17
  %4 = load ptr, ptr %2, align 8
  call void @llvm.lifetime.start.p0(i64 4, ptr %3) #14
  %5 = call noundef float @_ZNK9btVector36lengthEv(ptr noundef nonnull align 4 dereferenceable(16) %4)
  store float %5, ptr %3, align 4, !tbaa !15
  %6 = call noundef nonnull align 4 dereferenceable(16) ptr @_ZN9btVector3dVERKf(ptr noundef nonnull align 4 dereferenceable(16) %4, ptr noundef nonnull align 4 dereferenceable(4) %3)
  call void @llvm.lifetime.end.p0(i64 4, ptr %3) #14
  ret ptr %6
}

; Function Attrs: inlinehint mustprogress nounwind uwtable
define linkonce_odr dso_local noundef float @_Z6btSqrtf(float noundef %0) #5 comdat {
  %2 = alloca float, align 4
  store float %0, ptr %2, align 4, !tbaa !15
  %3 = load float, ptr %2, align 4, !tbaa !15
  %4 = call float @sqrtf(float noundef %3) #14, !tbaa !9
  ret float %4
}

; Function Attrs: inlinehint mustprogress nounwind uwtable
define linkonce_odr dso_local noundef float @_ZNK9btVector37length2Ev(ptr noundef nonnull align 4 dereferenceable(16) %0) #5 comdat align 2 {
  %2 = alloca ptr, align 8
  store ptr %0, ptr %2, align 8, !tbaa !17
  %3 = load ptr, ptr %2, align 8
  %4 = call noundef float @_ZNK9btVector33dotERKS_(ptr noundef nonnull align 4 dereferenceable(16) %3, ptr noundef nonnull align 4 dereferenceable(16) %3)
  ret float %4
}

; Function Attrs: inlinehint mustprogress uwtable
define linkonce_odr dso_local { <2 x float>, <2 x float> } @_ZNK9btVector35crossERKS_(ptr noundef nonnull align 4 dereferenceable(16) %0, ptr noundef nonnull align 4 dereferenceable(16) %1) #6 comdat align 2 {
  %3 = alloca %class.btVector3, align 4
  %4 = alloca ptr, align 8
  %5 = alloca ptr, align 8
  %6 = alloca float, align 4
  %7 = alloca float, align 4
  %8 = alloca float, align 4
  store ptr %0, ptr %4, align 8, !tbaa !17
  store ptr %1, ptr %5, align 8, !tbaa !17
  %9 = load ptr, ptr %4, align 8
  call void @llvm.lifetime.start.p0(i64 4, ptr %6) #14
  %10 = getelementptr inbounds nuw %class.btVector3, ptr %9, i32 0, i32 0
  %11 = getelementptr inbounds [4 x float], ptr %10, i64 0, i64 1
  %12 = load float, ptr %11, align 4, !tbaa !15
  %13 = load ptr, ptr %5, align 8, !tbaa !17
  %14 = getelementptr inbounds nuw %class.btVector3, ptr %13, i32 0, i32 0
  %15 = getelementptr inbounds [4 x float], ptr %14, i64 0, i64 2
  %16 = load float, ptr %15, align 4, !tbaa !15
  %17 = getelementptr inbounds nuw %class.btVector3, ptr %9, i32 0, i32 0
  %18 = getelementptr inbounds [4 x float], ptr %17, i64 0, i64 2
  %19 = load float, ptr %18, align 4, !tbaa !15
  %20 = load ptr, ptr %5, align 8, !tbaa !17
  %21 = getelementptr inbounds nuw %class.btVector3, ptr %20, i32 0, i32 0
  %22 = getelementptr inbounds [4 x float], ptr %21, i64 0, i64 1
  %23 = load float, ptr %22, align 4, !tbaa !15
  %24 = fmul float %19, %23
  %25 = fneg float %24
  %26 = call float @llvm.fmuladd.f32(float %12, float %16, float %25)
  store float %26, ptr %6, align 4, !tbaa !15
  call void @llvm.lifetime.start.p0(i64 4, ptr %7) #14
  %27 = getelementptr inbounds nuw %class.btVector3, ptr %9, i32 0, i32 0
  %28 = getelementptr inbounds [4 x float], ptr %27, i64 0, i64 2
  %29 = load float, ptr %28, align 4, !tbaa !15
  %30 = load ptr, ptr %5, align 8, !tbaa !17
  %31 = getelementptr inbounds nuw %class.btVector3, ptr %30, i32 0, i32 0
  %32 = getelementptr inbounds [4 x float], ptr %31, i64 0, i64 0
  %33 = load float, ptr %32, align 4, !tbaa !15
  %34 = getelementptr inbounds nuw %class.btVector3, ptr %9, i32 0, i32 0
  %35 = getelementptr inbounds [4 x float], ptr %34, i64 0, i64 0
  %36 = load float, ptr %35, align 4, !tbaa !15
  %37 = load ptr, ptr %5, align 8, !tbaa !17
  %38 = getelementptr inbounds nuw %class.btVector3, ptr %37, i32 0, i32 0
  %39 = getelementptr inbounds [4 x float], ptr %38, i64 0, i64 2
  %40 = load float, ptr %39, align 4, !tbaa !15
  %41 = fmul float %36, %40
  %42 = fneg float %41
  %43 = call float @llvm.fmuladd.f32(float %29, float %33, float %42)
  store float %43, ptr %7, align 4, !tbaa !15
  call void @llvm.lifetime.start.p0(i64 4, ptr %8) #14
  %44 = getelementptr inbounds nuw %class.btVector3, ptr %9, i32 0, i32 0
  %45 = getelementptr inbounds [4 x float], ptr %44, i64 0, i64 0
  %46 = load float, ptr %45, align 4, !tbaa !15
  %47 = load ptr, ptr %5, align 8, !tbaa !17
  %48 = getelementptr inbounds nuw %class.btVector3, ptr %47, i32 0, i32 0
  %49 = getelementptr inbounds [4 x float], ptr %48, i64 0, i64 1
  %50 = load float, ptr %49, align 4, !tbaa !15
  %51 = getelementptr inbounds nuw %class.btVector3, ptr %9, i32 0, i32 0
  %52 = getelementptr inbounds [4 x float], ptr %51, i64 0, i64 1
  %53 = load float, ptr %52, align 4, !tbaa !15
  %54 = load ptr, ptr %5, align 8, !tbaa !17
  %55 = getelementptr inbounds nuw %class.btVector3, ptr %54, i32 0, i32 0
  %56 = getelementptr inbounds [4 x float], ptr %55, i64 0, i64 0
  %57 = load float, ptr %56, align 4, !tbaa !15
  %58 = fmul float %53, %57
  %59 = fneg float %58
  %60 = call float @llvm.fmuladd.f32(float %46, float %50, float %59)
  store float %60, ptr %8, align 4, !tbaa !15
  call void @_ZN9btVector3C2ERKfS1_S1_(ptr noundef nonnull align 4 dereferenceable(16) %3, ptr noundef nonnull align 4 dereferenceable(4) %6, ptr noundef nonnull align 4 dereferenceable(4) %7, ptr noundef nonnull align 4 dereferenceable(4) %8)
  call void @llvm.lifetime.end.p0(i64 4, ptr %8) #14
  call void @llvm.lifetime.end.p0(i64 4, ptr %7) #14
  call void @llvm.lifetime.end.p0(i64 4, ptr %6) #14
  %61 = getelementptr inbounds nuw %class.btVector3, ptr %3, i32 0, i32 0
  %62 = load { <2 x float>, <2 x float> }, ptr %61, align 4
  ret { <2 x float>, <2 x float> } %62
}

; Function Attrs: inlinehint mustprogress uwtable
define linkonce_odr dso_local { <2 x float>, <2 x float> } @_ZNK9btVector310normalizedEv(ptr noundef nonnull align 4 dereferenceable(16) %0) #6 comdat align 2 {
  %2 = alloca %class.btVector3, align 4
  %3 = alloca ptr, align 8
  %4 = alloca %class.btVector3, align 4
  store ptr %0, ptr %3, align 8, !tbaa !17
  %5 = load ptr, ptr %3, align 8
  call void @llvm.lifetime.start.p0(i64 16, ptr %4) #14
  call void @llvm.memcpy.p0.p0.i64(ptr align 4 %4, ptr align 4 %5, i64 16, i1 false), !tbaa.struct !14
  %6 = call noundef nonnull align 4 dereferenceable(16) ptr @_ZN9btVector39normalizeEv(ptr noundef nonnull align 4 dereferenceable(16) %4)
  call void @llvm.memcpy.p0.p0.i64(ptr align 4 %2, ptr align 4 %6, i64 16, i1 false), !tbaa.struct !14
  call void @llvm.lifetime.end.p0(i64 16, ptr %4) #14
  %7 = getelementptr inbounds nuw %class.btVector3, ptr %2, i32 0, i32 0
  %8 = load { <2 x float>, <2 x float> }, ptr %7, align 4
  ret { <2 x float>, <2 x float> } %8
}

; Function Attrs: inlinehint mustprogress uwtable
define linkonce_odr dso_local noundef float @_ZNK9btVector36lengthEv(ptr noundef nonnull align 4 dereferenceable(16) %0) #6 comdat align 2 {
  %2 = alloca ptr, align 8
  store ptr %0, ptr %2, align 8, !tbaa !17
  %3 = load ptr, ptr %2, align 8
  %4 = call noundef float @_ZNK9btVector37length2Ev(ptr noundef nonnull align 4 dereferenceable(16) %3)
  %5 = call noundef float @_Z6btSqrtf(float noundef %4)
  ret float %5
}

; Function Attrs: inlinehint mustprogress uwtable
define linkonce_odr dso_local { <2 x float>, <2 x float> } @_Z7btCrossRK9btVector3S1_(ptr noundef nonnull align 4 dereferenceable(16) %0, ptr noundef nonnull align 4 dereferenceable(16) %1) #7 comdat {
  %3 = alloca %class.btVector3, align 4
  %4 = alloca ptr, align 8
  %5 = alloca ptr, align 8
  store ptr %0, ptr %4, align 8, !tbaa !17
  store ptr %1, ptr %5, align 8, !tbaa !17
  %6 = load ptr, ptr %4, align 8, !tbaa !17
  %7 = load ptr, ptr %5, align 8, !tbaa !17
  %8 = call { <2 x float>, <2 x float> } @_ZNK9btVector35crossERKS_(ptr noundef nonnull align 4 dereferenceable(16) %6, ptr noundef nonnull align 4 dereferenceable(16) %7)
  %9 = getelementptr inbounds nuw %class.btVector3, ptr %3, i32 0, i32 0
  %10 = getelementptr inbounds nuw { <2 x float>, <2 x float> }, ptr %9, i32 0, i32 0
  %11 = extractvalue { <2 x float>, <2 x float> } %8, 0
  store <2 x float> %11, ptr %10, align 4
  %12 = getelementptr inbounds nuw { <2 x float>, <2 x float> }, ptr %9, i32 0, i32 1
  %13 = extractvalue { <2 x float>, <2 x float> } %8, 1
  store <2 x float> %13, ptr %12, align 4
  %14 = getelementptr inbounds nuw %class.btVector3, ptr %3, i32 0, i32 0
  %15 = load { <2 x float>, <2 x float> }, ptr %14, align 4
  ret { <2 x float>, <2 x float> } %15
}

; Function Attrs: inlinehint mustprogress nounwind uwtable
define linkonce_odr dso_local void @_ZN9btVector3C2ERKfS1_S1_(ptr noundef nonnull align 4 dereferenceable(16) %0, ptr noundef nonnull align 4 dereferenceable(4) %1, ptr noundef nonnull align 4 dereferenceable(4) %2, ptr noundef nonnull align 4 dereferenceable(4) %3) unnamed_addr #5 comdat align 2 {
  %5 = alloca ptr, align 8
  %6 = alloca ptr, align 8
  %7 = alloca ptr, align 8
  %8 = alloca ptr, align 8
  store ptr %0, ptr %5, align 8, !tbaa !17
  store ptr %1, ptr %6, align 8, !tbaa !19
  store ptr %2, ptr %7, align 8, !tbaa !19
  store ptr %3, ptr %8, align 8, !tbaa !19
  %9 = load ptr, ptr %5, align 8
  %10 = load ptr, ptr %6, align 8, !tbaa !19
  %11 = load float, ptr %10, align 4, !tbaa !15
  %12 = getelementptr inbounds nuw %class.btVector3, ptr %9, i32 0, i32 0
  %13 = getelementptr inbounds [4 x float], ptr %12, i64 0, i64 0
  store float %11, ptr %13, align 4, !tbaa !15
  %14 = load ptr, ptr %7, align 8, !tbaa !19
  %15 = load float, ptr %14, align 4, !tbaa !15
  %16 = getelementptr inbounds nuw %class.btVector3, ptr %9, i32 0, i32 0
  %17 = getelementptr inbounds [4 x float], ptr %16, i64 0, i64 1
  store float %15, ptr %17, align 4, !tbaa !15
  %18 = load ptr, ptr %8, align 8, !tbaa !19
  %19 = load float, ptr %18, align 4, !tbaa !15
  %20 = getelementptr inbounds nuw %class.btVector3, ptr %9, i32 0, i32 0
  %21 = getelementptr inbounds [4 x float], ptr %20, i64 0, i64 2
  store float %19, ptr %21, align 4, !tbaa !15
  %22 = getelementptr inbounds nuw %class.btVector3, ptr %9, i32 0, i32 0
  %23 = getelementptr inbounds [4 x float], ptr %22, i64 0, i64 3
  store float 0.000000e+00, ptr %23, align 4, !tbaa !15
  ret void
}

; Function Attrs: mustprogress uwtable
define dso_local { <2 x float>, <2 x float> } @_Z4orthRK9btVector3(ptr noundef nonnull align 4 dereferenceable(16) %0) #2 {
  %2 = alloca %class.btVector3, align 4
  %3 = alloca ptr, align 8
  %4 = alloca %class.btVector3, align 4
  %5 = alloca %class.btVector3, align 4
  %6 = alloca float, align 4
  %7 = alloca float, align 4
  %8 = alloca float, align 4
  %9 = alloca %class.btVector3, align 4
  %10 = alloca %class.btVector3, align 4
  %11 = alloca float, align 4
  %12 = alloca float, align 4
  %13 = alloca float, align 4
  %14 = alloca i32, align 4
  store ptr %0, ptr %3, align 8, !tbaa !17
  call void @llvm.lifetime.start.p0(i64 16, ptr %4) #14
  %15 = load ptr, ptr %3, align 8, !tbaa !17
  call void @llvm.lifetime.start.p0(i64 16, ptr %5) #14
  call void @llvm.lifetime.start.p0(i64 4, ptr %6) #14
  store float 0.000000e+00, ptr %6, align 4, !tbaa !15
  call void @llvm.lifetime.start.p0(i64 4, ptr %7) #14
  store float 0.000000e+00, ptr %7, align 4, !tbaa !15
  call void @llvm.lifetime.start.p0(i64 4, ptr %8) #14
  store float 1.000000e+00, ptr %8, align 4, !tbaa !15
  call void @_ZN9btVector3C2ERKfS1_S1_(ptr noundef nonnull align 4 dereferenceable(16) %5, ptr noundef nonnull align 4 dereferenceable(4) %6, ptr noundef nonnull align 4 dereferenceable(4) %7, ptr noundef nonnull align 4 dereferenceable(4) %8)
  %16 = call { <2 x float>, <2 x float> } @_Z7btCrossRK9btVector3S1_(ptr noundef nonnull align 4 dereferenceable(16) %15, ptr noundef nonnull align 4 dereferenceable(16) %5)
  %17 = getelementptr inbounds nuw %class.btVector3, ptr %4, i32 0, i32 0
  %18 = getelementptr inbounds nuw { <2 x float>, <2 x float> }, ptr %17, i32 0, i32 0
  %19 = extractvalue { <2 x float>, <2 x float> } %16, 0
  store <2 x float> %19, ptr %18, align 4
  %20 = getelementptr inbounds nuw { <2 x float>, <2 x float> }, ptr %17, i32 0, i32 1
  %21 = extractvalue { <2 x float>, <2 x float> } %16, 1
  store <2 x float> %21, ptr %20, align 4
  call void @llvm.lifetime.end.p0(i64 4, ptr %8) #14
  call void @llvm.lifetime.end.p0(i64 4, ptr %7) #14
  call void @llvm.lifetime.end.p0(i64 4, ptr %6) #14
  call void @llvm.lifetime.end.p0(i64 16, ptr %5) #14
  call void @llvm.lifetime.start.p0(i64 16, ptr %9) #14
  %22 = load ptr, ptr %3, align 8, !tbaa !17
  call void @llvm.lifetime.start.p0(i64 16, ptr %10) #14
  call void @llvm.lifetime.start.p0(i64 4, ptr %11) #14
  store float 0.000000e+00, ptr %11, align 4, !tbaa !15
  call void @llvm.lifetime.start.p0(i64 4, ptr %12) #14
  store float 1.000000e+00, ptr %12, align 4, !tbaa !15
  call void @llvm.lifetime.start.p0(i64 4, ptr %13) #14
  store float 0.000000e+00, ptr %13, align 4, !tbaa !15
  call void @_ZN9btVector3C2ERKfS1_S1_(ptr noundef nonnull align 4 dereferenceable(16) %10, ptr noundef nonnull align 4 dereferenceable(4) %11, ptr noundef nonnull align 4 dereferenceable(4) %12, ptr noundef nonnull align 4 dereferenceable(4) %13)
  %23 = call { <2 x float>, <2 x float> } @_Z7btCrossRK9btVector3S1_(ptr noundef nonnull align 4 dereferenceable(16) %22, ptr noundef nonnull align 4 dereferenceable(16) %10)
  %24 = getelementptr inbounds nuw %class.btVector3, ptr %9, i32 0, i32 0
  %25 = getelementptr inbounds nuw { <2 x float>, <2 x float> }, ptr %24, i32 0, i32 0
  %26 = extractvalue { <2 x float>, <2 x float> } %23, 0
  store <2 x float> %26, ptr %25, align 4
  %27 = getelementptr inbounds nuw { <2 x float>, <2 x float> }, ptr %24, i32 0, i32 1
  %28 = extractvalue { <2 x float>, <2 x float> } %23, 1
  store <2 x float> %28, ptr %27, align 4
  call void @llvm.lifetime.end.p0(i64 4, ptr %13) #14
  call void @llvm.lifetime.end.p0(i64 4, ptr %12) #14
  call void @llvm.lifetime.end.p0(i64 4, ptr %11) #14
  call void @llvm.lifetime.end.p0(i64 16, ptr %10) #14
  %29 = call noundef float @_ZNK9btVector36lengthEv(ptr noundef nonnull align 4 dereferenceable(16) %4)
  %30 = call noundef float @_ZNK9btVector36lengthEv(ptr noundef nonnull align 4 dereferenceable(16) %9)
  %31 = fcmp ogt float %29, %30
  br i1 %31, label %32, label %39

32:                                               ; preds = %1
  %33 = call { <2 x float>, <2 x float> } @_ZNK9btVector310normalizedEv(ptr noundef nonnull align 4 dereferenceable(16) %4)
  %34 = getelementptr inbounds nuw %class.btVector3, ptr %2, i32 0, i32 0
  %35 = getelementptr inbounds nuw { <2 x float>, <2 x float> }, ptr %34, i32 0, i32 0
  %36 = extractvalue { <2 x float>, <2 x float> } %33, 0
  store <2 x float> %36, ptr %35, align 4
  %37 = getelementptr inbounds nuw { <2 x float>, <2 x float> }, ptr %34, i32 0, i32 1
  %38 = extractvalue { <2 x float>, <2 x float> } %33, 1
  store <2 x float> %38, ptr %37, align 4
  store i32 1, ptr %14, align 4
  br label %46

39:                                               ; preds = %1
  %40 = call { <2 x float>, <2 x float> } @_ZNK9btVector310normalizedEv(ptr noundef nonnull align 4 dereferenceable(16) %9)
  %41 = getelementptr inbounds nuw %class.btVector3, ptr %2, i32 0, i32 0
  %42 = getelementptr inbounds nuw { <2 x float>, <2 x float> }, ptr %41, i32 0, i32 0
  %43 = extractvalue { <2 x float>, <2 x float> } %40, 0
  store <2 x float> %43, ptr %42, align 4
  %44 = getelementptr inbounds nuw { <2 x float>, <2 x float> }, ptr %41, i32 0, i32 1
  %45 = extractvalue { <2 x float>, <2 x float> } %40, 1
  store <2 x float> %45, ptr %44, align 4
  store i32 1, ptr %14, align 4
  br label %46

46:                                               ; preds = %39, %32
  call void @llvm.lifetime.end.p0(i64 16, ptr %9) #14
  call void @llvm.lifetime.end.p0(i64 16, ptr %4) #14
  %47 = getelementptr inbounds nuw %class.btVector3, ptr %2, i32 0, i32 0
  %48 = load { <2 x float>, <2 x float> }, ptr %47, align 4
  ret { <2 x float>, <2 x float> } %48
}