; Function Attrs: mustprogress nofree norecurse nosync nounwind willreturn memory(argmem: read) uwtable
define dso_local { <2 x float>, <2 x float> } @_Z4orthRK9btVector3(ptr noundef nonnull readonly align 4 captures(none) dereferenceable(16) %0) local_unnamed_addr #0 {
  %2 = getelementptr inbounds nuw i8, ptr %0, i64 4
  %3 = load float, ptr %2, align 4, !tbaa !4
  %4 = getelementptr inbounds nuw i8, ptr %0, i64 8
  %5 = load float, ptr %4, align 4, !tbaa !4
  %6 = fmul float %5, 0.000000e+00
  %7 = fsub float %3, %6
  %8 = load float, ptr %0, align 4, !tbaa !4
  %9 = fneg float %8
  %10 = tail call float @llvm.fmuladd.f32(float %5, float 0.000000e+00, float %9)
  %11 = fmul float %3, -0.000000e+00
  %12 = tail call float @llvm.fmuladd.f32(float %8, float 0.000000e+00, float %11)
  %13 = fneg float %5
  %14 = tail call float @llvm.fmuladd.f32(float %3, float 0.000000e+00, float %13)
  %15 = fmul float %8, -0.000000e+00
  %16 = tail call float @llvm.fmuladd.f32(float %5, float 0.000000e+00, float %15)
  %17 = fadd float %11, %8
  %18 = fmul float %10, %10
  %19 = tail call float @llvm.fmuladd.f32(float %7, float %7, float %18)
  %20 = tail call noundef float @llvm.fmuladd.f32(float %12, float %12, float %19)
  %sqrt.i = tail call noundef float @llvm.sqrt.f32(float %20)
  %21 = fmul float %16, %16
  %22 = tail call float @llvm.fmuladd.f32(float %14, float %14, float %21)
  %23 = tail call noundef float @llvm.fmuladd.f32(float %17, float %17, float %22)
  %sqrt.i8 = tail call noundef float @llvm.sqrt.f32(float %23)
  %24 = fcmp ogt float %sqrt.i, %sqrt.i8
  %sqrt.i.sqrt.i8 = select i1 %24, float %sqrt.i, float %sqrt.i8
  %. = select i1 %24, float %7, float %14
  %.45 = select i1 %24, float %10, float %16
  %.46 = select i1 %24, float %12, float %17
  %25 = fdiv float 1.000000e+00, %sqrt.i.sqrt.i8
  %26 = fmul float %., %25
  %.sroa.0.0.vec.insert.i16 = insertelement <2 x float> poison, float %26, i64 0
  %27 = fmul float %.45, %25
  %.sroa.0.4.vec.insert.i17 = insertelement <2 x float> %.sroa.0.0.vec.insert.i16, float %27, i64 1
  %28 = fmul float %.46, %25
  %.sroa.8.8.vec.insert.i18 = insertelement <2 x float> <float poison, float 0.000000e+00>, float %28, i64 0
  %.fca.0.insert.i.pn = insertvalue { <2 x float>, <2 x float> } poison, <2 x float> %.sroa.0.4.vec.insert.i17, 0
  %.pn = insertvalue { <2 x float>, <2 x float> } %.fca.0.insert.i.pn, <2 x float> %.sroa.8.8.vec.insert.i18, 1
  ret { <2 x float>, <2 x float> } %.pn
}